; Function Attrs: nounwind uwtable
define noalias nonnull ptr @l___private_Lake_Build_Job_Basic_0__Lake_JobTask_toOpaqueImpl(ptr noundef readnone captures(none) %0) local_unnamed_addr #1 {
  tail call void @lean_inc_heartbeat() #8
  %2 = tail call noalias ptr @mi_malloc_small(i64 noundef 24) #8
  %3 = icmp eq ptr %2, null
  br i1 %3, label %4, label %lean_alloc_closure.exit

4:                                                ; preds = %1
  tail call void @lean_internal_panic_out_of_memory() #9
  unreachable

lean_alloc_closure.exit:                          ; preds = %1
  %5 = getelementptr inbounds nuw i8, ptr %2, i64 4
  store i32 1, ptr %2, align 4, !tbaa !4
  store i32 -184549352, ptr %5, align 4
  %6 = getelementptr inbounds nuw i8, ptr %2, i64 8
  store ptr @l___private_Lake_Build_Job_Basic_0__Lake_JobTask_toOpaqueImpl___rarg___boxed, ptr %6, align 8, !tbaa !10
  %7 = getelementptr inbounds nuw i8, ptr %2, i64 16
  store i16 1, ptr %7, align 8, !tbaa !12
  %8 = getelementptr inbounds nuw i8, ptr %2, i64 18
  store i16 0, ptr %8, align 2, !tbaa !12
  ret ptr %2
}